Archive member included to satisfy reference by file (symbol)

c:/users/18111/appdata/roaming/xpacks/@xpack-dev-tools/arm-none-eabi-gcc/11.2.1-1.1.1/.content/bin/../lib/gcc/arm-none-eabi/11.2.1/../../../../arm-none-eabi/lib/thumb/v7-m/nofp\libc_nano.a(lib_a-atexit.o)
                              c:/users/18111/appdata/roaming/xpacks/@xpack-dev-tools/arm-none-eabi-gcc/11.2.1-1.1.1/.content/bin/../lib/gcc/arm-none-eabi/11.2.1/../../../../arm-none-eabi/lib/thumb/v7-m/nofp/crt0.o (atexit)
c:/users/18111/appdata/roaming/xpacks/@xpack-dev-tools/arm-none-eabi-gcc/11.2.1-1.1.1/.content/bin/../lib/gcc/arm-none-eabi/11.2.1/../../../../arm-none-eabi/lib/thumb/v7-m/nofp\libc_nano.a(lib_a-exit.o)
                              c:/users/18111/appdata/roaming/xpacks/@xpack-dev-tools/arm-none-eabi-gcc/11.2.1-1.1.1/.content/bin/../lib/gcc/arm-none-eabi/11.2.1/../../../../arm-none-eabi/lib/thumb/v7-m/nofp/crt0.o (exit)
c:/users/18111/appdata/roaming/xpacks/@xpack-dev-tools/arm-none-eabi-gcc/11.2.1-1.1.1/.content/bin/../lib/gcc/arm-none-eabi/11.2.1/../../../../arm-none-eabi/lib/thumb/v7-m/nofp\libc_nano.a(lib_a-fini.o)
                              c:/users/18111/appdata/roaming/xpacks/@xpack-dev-tools/arm-none-eabi-gcc/11.2.1-1.1.1/.content/bin/../lib/gcc/arm-none-eabi/11.2.1/../../../../arm-none-eabi/lib/thumb/v7-m/nofp/crt0.o (__libc_fini_array)
c:/users/18111/appdata/roaming/xpacks/@xpack-dev-tools/arm-none-eabi-gcc/11.2.1-1.1.1/.content/bin/../lib/gcc/arm-none-eabi/11.2.1/../../../../arm-none-eabi/lib/thumb/v7-m/nofp\libc_nano.a(lib_a-impure.o)
                              c:/users/18111/appdata/roaming/xpacks/@xpack-dev-tools/arm-none-eabi-gcc/11.2.1-1.1.1/.content/bin/../lib/gcc/arm-none-eabi/11.2.1/../../../../arm-none-eabi/lib/thumb/v7-m/nofp\libc_nano.a(lib_a-exit.o) (_global_impure_ptr)
c:/users/18111/appdata/roaming/xpacks/@xpack-dev-tools/arm-none-eabi-gcc/11.2.1-1.1.1/.content/bin/../lib/gcc/arm-none-eabi/11.2.1/../../../../arm-none-eabi/lib/thumb/v7-m/nofp\libc_nano.a(lib_a-init.o)
                              c:/users/18111/appdata/roaming/xpacks/@xpack-dev-tools/arm-none-eabi-gcc/11.2.1-1.1.1/.content/bin/../lib/gcc/arm-none-eabi/11.2.1/../../../../arm-none-eabi/lib/thumb/v7-m/nofp/crt0.o (__libc_init_array)
c:/users/18111/appdata/roaming/xpacks/@xpack-dev-tools/arm-none-eabi-gcc/11.2.1-1.1.1/.content/bin/../lib/gcc/arm-none-eabi/11.2.1/../../../../arm-none-eabi/lib/thumb/v7-m/nofp\libc_nano.a(lib_a-memset.o)
                              c:/users/18111/appdata/roaming/xpacks/@xpack-dev-tools/arm-none-eabi-gcc/11.2.1-1.1.1/.content/bin/../lib/gcc/arm-none-eabi/11.2.1/../../../../arm-none-eabi/lib/thumb/v7-m/nofp/crt0.o (memset)
c:/users/18111/appdata/roaming/xpacks/@xpack-dev-tools/arm-none-eabi-gcc/11.2.1-1.1.1/.content/bin/../lib/gcc/arm-none-eabi/11.2.1/../../../../arm-none-eabi/lib/thumb/v7-m/nofp\libc_nano.a(lib_a-__atexit.o)
                              c:/users/18111/appdata/roaming/xpacks/@xpack-dev-tools/arm-none-eabi-gcc/11.2.1-1.1.1/.content/bin/../lib/gcc/arm-none-eabi/11.2.1/../../../../arm-none-eabi/lib/thumb/v7-m/nofp\libc_nano.a(lib_a-atexit.o) (__register_exitproc)
c:/users/18111/appdata/roaming/xpacks/@xpack-dev-tools/arm-none-eabi-gcc/11.2.1-1.1.1/.content/bin/../lib/gcc/arm-none-eabi/11.2.1/../../../../arm-none-eabi/lib/thumb/v7-m/nofp\libc_nano.a(lib_a-__call_atexit.o)
                              c:/users/18111/appdata/roaming/xpacks/@xpack-dev-tools/arm-none-eabi-gcc/11.2.1-1.1.1/.content/bin/../lib/gcc/arm-none-eabi/11.2.1/../../../../arm-none-eabi/lib/thumb/v7-m/nofp\libc_nano.a(lib_a-__atexit.o) (__call_exitprocs)
c:/users/18111/appdata/roaming/xpacks/@xpack-dev-tools/arm-none-eabi-gcc/11.2.1-1.1.1/.content/bin/../lib/gcc/arm-none-eabi/11.2.1/../../../../arm-none-eabi/lib/thumb/v7-m/nofp\libnosys.a(_exit.o)
                              c:/users/18111/appdata/roaming/xpacks/@xpack-dev-tools/arm-none-eabi-gcc/11.2.1-1.1.1/.content/bin/../lib/gcc/arm-none-eabi/11.2.1/../../../../arm-none-eabi/lib/thumb/v7-m/nofp\libc_nano.a(lib_a-exit.o) (_exit)

Discarded input sections

 .text          0x0000000000000000        0x0 c:/users/18111/appdata/roaming/xpacks/@xpack-dev-tools/arm-none-eabi-gcc/11.2.1-1.1.1/.content/bin/../lib/gcc/arm-none-eabi/11.2.1/thumb/v7-m/nofp/crti.o
 .data          0x0000000000000000        0x0 c:/users/18111/appdata/roaming/xpacks/@xpack-dev-tools/arm-none-eabi-gcc/11.2.1-1.1.1/.content/bin/../lib/gcc/arm-none-eabi/11.2.1/thumb/v7-m/nofp/crti.o
 .bss           0x0000000000000000        0x0 c:/users/18111/appdata/roaming/xpacks/@xpack-dev-tools/arm-none-eabi-gcc/11.2.1-1.1.1/.content/bin/../lib/gcc/arm-none-eabi/11.2.1/thumb/v7-m/nofp/crti.o
 .text          0x0000000000000000        0x0 c:/users/18111/appdata/roaming/xpacks/@xpack-dev-tools/arm-none-eabi-gcc/11.2.1-1.1.1/.content/bin/../lib/gcc/arm-none-eabi/11.2.1/thumb/v7-m/nofp/crtbegin.o
 .data          0x0000000000000000        0x0 c:/users/18111/appdata/roaming/xpacks/@xpack-dev-tools/arm-none-eabi-gcc/11.2.1-1.1.1/.content/bin/../lib/gcc/arm-none-eabi/11.2.1/thumb/v7-m/nofp/crtbegin.o
 .bss           0x0000000000000000        0x0 c:/users/18111/appdata/roaming/xpacks/@xpack-dev-tools/arm-none-eabi-gcc/11.2.1-1.1.1/.content/bin/../lib/gcc/arm-none-eabi/11.2.1/thumb/v7-m/nofp/crtbegin.o
 .rodata.all_implied_fbits
                0x0000000000000000       0x24 c:/users/18111/appdata/roaming/xpacks/@xpack-dev-tools/arm-none-eabi-gcc/11.2.1-1.1.1/.content/bin/../lib/gcc/arm-none-eabi/11.2.1/thumb/v7-m/nofp/crtbegin.o
 .init_array    0x0000000000000000        0x4 c:/users/18111/appdata/roaming/xpacks/@xpack-dev-tools/arm-none-eabi-gcc/11.2.1-1.1.1/.content/bin/../lib/gcc/arm-none-eabi/11.2.1/thumb/v7-m/nofp/crtbegin.o
 .fini_array    0x0000000000000000        0x4 c:/users/18111/appdata/roaming/xpacks/@xpack-dev-tools/arm-none-eabi-gcc/11.2.1-1.1.1/.content/bin/../lib/gcc/arm-none-eabi/11.2.1/thumb/v7-m/nofp/crtbegin.o
 .eh_frame      0x0000000000000000        0x0 c:/users/18111/appdata/roaming/xpacks/@xpack-dev-tools/arm-none-eabi-gcc/11.2.1-1.1.1/.content/bin/../lib/gcc/arm-none-eabi/11.2.1/thumb/v7-m/nofp/crtbegin.o
 .tm_clone_table
                0x0000000000000000        0x0 c:/users/18111/appdata/roaming/xpacks/@xpack-dev-tools/arm-none-eabi-gcc/11.2.1-1.1.1/.content/bin/../lib/gcc/arm-none-eabi/11.2.1/thumb/v7-m/nofp/crtbegin.o
 .text.deregister_tm_clones
                0x0000000000000000       0x1c c:/users/18111/appdata/roaming/xpacks/@xpack-dev-tools/arm-none-eabi-gcc/11.2.1-1.1.1/.content/bin/../lib/gcc/arm-none-eabi/11.2.1/thumb/v7-m/nofp/crtbegin.o
 .text.register_tm_clones
                0x0000000000000000       0x24 c:/users/18111/appdata/roaming/xpacks/@xpack-dev-tools/arm-none-eabi-gcc/11.2.1-1.1.1/.content/bin/../lib/gcc/arm-none-eabi/11.2.1/thumb/v7-m/nofp/crtbegin.o
 .data.__dso_handle
                0x0000000000000000        0x4 c:/users/18111/appdata/roaming/xpacks/@xpack-dev-tools/arm-none-eabi-gcc/11.2.1-1.1.1/.content/bin/../lib/gcc/arm-none-eabi/11.2.1/thumb/v7-m/nofp/crtbegin.o
 .text.__do_global_dtors_aux
                0x0000000000000000       0x28 c:/users/18111/appdata/roaming/xpacks/@xpack-dev-tools/arm-none-eabi-gcc/11.2.1-1.1.1/.content/bin/../lib/gcc/arm-none-eabi/11.2.1/thumb/v7-m/nofp/crtbegin.o
 .text.frame_dummy
                0x0000000000000000       0x24 c:/users/18111/appdata/roaming/xpacks/@xpack-dev-tools/arm-none-eabi-gcc/11.2.1-1.1.1/.content/bin/../lib/gcc/arm-none-eabi/11.2.1/thumb/v7-m/nofp/crtbegin.o
 .bss.completed.1
                0x0000000000000000        0x1 c:/users/18111/appdata/roaming/xpacks/@xpack-dev-tools/arm-none-eabi-gcc/11.2.1-1.1.1/.content/bin/../lib/gcc/arm-none-eabi/11.2.1/thumb/v7-m/nofp/crtbegin.o
 .bss.object.0  0x0000000000000000       0x18 c:/users/18111/appdata/roaming/xpacks/@xpack-dev-tools/arm-none-eabi-gcc/11.2.1-1.1.1/.content/bin/../lib/gcc/arm-none-eabi/11.2.1/thumb/v7-m/nofp/crtbegin.o
 .comment       0x0000000000000000       0x3a c:/users/18111/appdata/roaming/xpacks/@xpack-dev-tools/arm-none-eabi-gcc/11.2.1-1.1.1/.content/bin/../lib/gcc/arm-none-eabi/11.2.1/thumb/v7-m/nofp/crtbegin.o
 .ARM.attributes
                0x0000000000000000       0x2d c:/users/18111/appdata/roaming/xpacks/@xpack-dev-tools/arm-none-eabi-gcc/11.2.1-1.1.1/.content/bin/../lib/gcc/arm-none-eabi/11.2.1/thumb/v7-m/nofp/crtbegin.o
 .text          0x0000000000000000       0x70 c:/users/18111/appdata/roaming/xpacks/@xpack-dev-tools/arm-none-eabi-gcc/11.2.1-1.1.1/.content/bin/../lib/gcc/arm-none-eabi/11.2.1/../../../../arm-none-eabi/lib/thumb/v7-m/nofp/crt0.o
 .data          0x0000000000000000        0x0 c:/users/18111/appdata/roaming/xpacks/@xpack-dev-tools/arm-none-eabi-gcc/11.2.1-1.1.1/.content/bin/../lib/gcc/arm-none-eabi/11.2.1/../../../../arm-none-eabi/lib/thumb/v7-m/nofp/crt0.o
 .bss           0x0000000000000000        0x0 c:/users/18111/appdata/roaming/xpacks/@xpack-dev-tools/arm-none-eabi-gcc/11.2.1-1.1.1/.content/bin/../lib/gcc/arm-none-eabi/11.2.1/../../../../arm-none-eabi/lib/thumb/v7-m/nofp/crt0.o
 .ARM.extab     0x0000000000000000        0x0 c:/users/18111/appdata/roaming/xpacks/@xpack-dev-tools/arm-none-eabi-gcc/11.2.1-1.1.1/.content/bin/../lib/gcc/arm-none-eabi/11.2.1/../../../../arm-none-eabi/lib/thumb/v7-m/nofp/crt0.o
 .ARM.exidx     0x0000000000000000       0x10 c:/users/18111/appdata/roaming/xpacks/@xpack-dev-tools/arm-none-eabi-gcc/11.2.1-1.1.1/.content/bin/../lib/gcc/arm-none-eabi/11.2.1/../../../../arm-none-eabi/lib/thumb/v7-m/nofp/crt0.o
 .ARM.attributes
                0x0000000000000000       0x1b c:/users/18111/appdata/roaming/xpacks/@xpack-dev-tools/arm-none-eabi-gcc/11.2.1-1.1.1/.content/bin/../lib/gcc/arm-none-eabi/11.2.1/../../../../arm-none-eabi/lib/thumb/v7-m/nofp/crt0.o
 .data          0x0000000000000000        0x0 build/startup_stm32f100xb.o
 .bss           0x0000000000000000        0x0 build/startup_stm32f100xb.o
 .data          0x0000000000000000        0x0 build/calculator.o
 .bss           0x0000000000000000        0x0 build/calculator.o
 .data          0x0000000000000000        0x0 build/test.o
 .bss           0x0000000000000000        0x0 build/test.o
 .text          0x0000000000000000        0x0 c:/users/18111/appdata/roaming/xpacks/@xpack-dev-tools/arm-none-eabi-gcc/11.2.1-1.1.1/.content/bin/../lib/gcc/arm-none-eabi/11.2.1/../../../../arm-none-eabi/lib/thumb/v7-m/nofp\libc_nano.a(lib_a-atexit.o)
 .data          0x0000000000000000        0x0 c:/users/18111/appdata/roaming/xpacks/@xpack-dev-tools/arm-none-eabi-gcc/11.2.1-1.1.1/.content/bin/../lib/gcc/arm-none-eabi/11.2.1/../../../../arm-none-eabi/lib/thumb/v7-m/nofp\libc_nano.a(lib_a-atexit.o)
 .bss           0x0000000000000000        0x0 c:/users/18111/appdata/roaming/xpacks/@xpack-dev-tools/arm-none-eabi-gcc/11.2.1-1.1.1/.content/bin/../lib/gcc/arm-none-eabi/11.2.1/../../../../arm-none-eabi/lib/thumb/v7-m/nofp\libc_nano.a(lib_a-atexit.o)
 .text.atexit   0x0000000000000000        0xc c:/users/18111/appdata/roaming/xpacks/@xpack-dev-tools/arm-none-eabi-gcc/11.2.1-1.1.1/.content/bin/../lib/gcc/arm-none-eabi/11.2.1/../../../../arm-none-eabi/lib/thumb/v7-m/nofp\libc_nano.a(lib_a-atexit.o)
 .comment       0x0000000000000000       0x3a c:/users/18111/appdata/roaming/xpacks/@xpack-dev-tools/arm-none-eabi-gcc/11.2.1-1.1.1/.content/bin/../lib/gcc/arm-none-eabi/11.2.1/../../../../arm-none-eabi/lib/thumb/v7-m/nofp\libc_nano.a(lib_a-atexit.o)
 .ARM.attributes
                0x0000000000000000       0x2d c:/users/18111/appdata/roaming/xpacks/@xpack-dev-tools/arm-none-eabi-gcc/11.2.1-1.1.1/.content/bin/../lib/gcc/arm-none-eabi/11.2.1/../../../../arm-none-eabi/lib/thumb/v7-m/nofp\libc_nano.a(lib_a-atexit.o)
 .text          0x0000000000000000        0x0 c:/users/18111/appdata/roaming/xpacks/@xpack-dev-tools/arm-none-eabi-gcc/11.2.1-1.1.1/.content/bin/../lib/gcc/arm-none-eabi/11.2.1/../../../../arm-none-eabi/lib/thumb/v7-m/nofp\libc_nano.a(lib_a-exit.o)
 .data          0x0000000000000000        0x0 c:/users/18111/appdata/roaming/xpacks/@xpack-dev-tools/arm-none-eabi-gcc/11.2.1-1.1.1/.content/bin/../lib/gcc/arm-none-eabi/11.2.1/../../../../arm-none-eabi/lib/thumb/v7-m/nofp\libc_nano.a(lib_a-exit.o)
 .bss           0x0000000000000000        0x0 c:/users/18111/appdata/roaming/xpacks/@xpack-dev-tools/arm-none-eabi-gcc/11.2.1-1.1.1/.content/bin/../lib/gcc/arm-none-eabi/11.2.1/../../../../arm-none-eabi/lib/thumb/v7-m/nofp\libc_nano.a(lib_a-exit.o)
 .text.exit     0x0000000000000000       0x28 c:/users/18111/appdata/roaming/xpacks/@xpack-dev-tools/arm-none-eabi-gcc/11.2.1-1.1.1/.content/bin/../lib/gcc/arm-none-eabi/11.2.1/../../../../arm-none-eabi/lib/thumb/v7-m/nofp\libc_nano.a(lib_a-exit.o)
 .comment       0x0000000000000000       0x3a c:/users/18111/appdata/roaming/xpacks/@xpack-dev-tools/arm-none-eabi-gcc/11.2.1-1.1.1/.content/bin/../lib/gcc/arm-none-eabi/11.2.1/../../../../arm-none-eabi/lib/thumb/v7-m/nofp\libc_nano.a(lib_a-exit.o)
 .ARM.attributes
                0x0000000000000000       0x2d c:/users/18111/appdata/roaming/xpacks/@xpack-dev-tools/arm-none-eabi-gcc/11.2.1-1.1.1/.content/bin/../lib/gcc/arm-none-eabi/11.2.1/../../../../arm-none-eabi/lib/thumb/v7-m/nofp\libc_nano.a(lib_a-exit.o)
 .text          0x0000000000000000        0x0 c:/users/18111/appdata/roaming/xpacks/@xpack-dev-tools/arm-none-eabi-gcc/11.2.1-1.1.1/.content/bin/../lib/gcc/arm-none-eabi/11.2.1/../../../../arm-none-eabi/lib/thumb/v7-m/nofp\libc_nano.a(lib_a-fini.o)
 .data          0x0000000000000000        0x0 c:/users/18111/appdata/roaming/xpacks/@xpack-dev-tools/arm-none-eabi-gcc/11.2.1-1.1.1/.content/bin/../lib/gcc/arm-none-eabi/11.2.1/../../../../arm-none-eabi/lib/thumb/v7-m/nofp\libc_nano.a(lib_a-fini.o)
 .bss           0x0000000000000000        0x0 c:/users/18111/appdata/roaming/xpacks/@xpack-dev-tools/arm-none-eabi-gcc/11.2.1-1.1.1/.content/bin/../lib/gcc/arm-none-eabi/11.2.1/../../../../arm-none-eabi/lib/thumb/v7-m/nofp\libc_nano.a(lib_a-fini.o)
 .text.__libc_fini_array
                0x0000000000000000       0x28 c:/users/18111/appdata/roaming/xpacks/@xpack-dev-tools/arm-none-eabi-gcc/11.2.1-1.1.1/.content/bin/../lib/gcc/arm-none-eabi/11.2.1/../../../../arm-none-eabi/lib/thumb/v7-m/nofp\libc_nano.a(lib_a-fini.o)
 .comment       0x0000000000000000       0x3a c:/users/18111/appdata/roaming/xpacks/@xpack-dev-tools/arm-none-eabi-gcc/11.2.1-1.1.1/.content/bin/../lib/gcc/arm-none-eabi/11.2.1/../../../../arm-none-eabi/lib/thumb/v7-m/nofp\libc_nano.a(lib_a-fini.o)
 .ARM.attributes
                0x0000000000000000       0x2d c:/users/18111/appdata/roaming/xpacks/@xpack-dev-tools/arm-none-eabi-gcc/11.2.1-1.1.1/.content/bin/../lib/gcc/arm-none-eabi/11.2.1/../../../../arm-none-eabi/lib/thumb/v7-m/nofp\libc_nano.a(lib_a-fini.o)
 .text          0x0000000000000000        0x0 c:/users/18111/appdata/roaming/xpacks/@xpack-dev-tools/arm-none-eabi-gcc/11.2.1-1.1.1/.content/bin/../lib/gcc/arm-none-eabi/11.2.1/../../../../arm-none-eabi/lib/thumb/v7-m/nofp\libc_nano.a(lib_a-impure.o)
 .data          0x0000000000000000        0x0 c:/users/18111/appdata/roaming/xpacks/@xpack-dev-tools/arm-none-eabi-gcc/11.2.1-1.1.1/.content/bin/../lib/gcc/arm-none-eabi/11.2.1/../../../../arm-none-eabi/lib/thumb/v7-m/nofp\libc_nano.a(lib_a-impure.o)
 .bss           0x0000000000000000        0x0 c:/users/18111/appdata/roaming/xpacks/@xpack-dev-tools/arm-none-eabi-gcc/11.2.1-1.1.1/.content/bin/../lib/gcc/arm-none-eabi/11.2.1/../../../../arm-none-eabi/lib/thumb/v7-m/nofp\libc_nano.a(lib_a-impure.o)
 .data._impure_ptr
                0x0000000000000000        0x4 c:/users/18111/appdata/roaming/xpacks/@xpack-dev-tools/arm-none-eabi-gcc/11.2.1-1.1.1/.content/bin/../lib/gcc/arm-none-eabi/11.2.1/../../../../arm-none-eabi/lib/thumb/v7-m/nofp\libc_nano.a(lib_a-impure.o)
 .data.impure_data
                0x0000000000000000       0x60 c:/users/18111/appdata/roaming/xpacks/@xpack-dev-tools/arm-none-eabi-gcc/11.2.1-1.1.1/.content/bin/../lib/gcc/arm-none-eabi/11.2.1/../../../../arm-none-eabi/lib/thumb/v7-m/nofp\libc_nano.a(lib_a-impure.o)
 .rodata._global_impure_ptr
                0x0000000000000000        0x4 c:/users/18111/appdata/roaming/xpacks/@xpack-dev-tools/arm-none-eabi-gcc/11.2.1-1.1.1/.content/bin/../lib/gcc/arm-none-eabi/11.2.1/../../../../arm-none-eabi/lib/thumb/v7-m/nofp\libc_nano.a(lib_a-impure.o)
 .comment       0x0000000000000000       0x3a c:/users/18111/appdata/roaming/xpacks/@xpack-dev-tools/arm-none-eabi-gcc/11.2.1-1.1.1/.content/bin/../lib/gcc/arm-none-eabi/11.2.1/../../../../arm-none-eabi/lib/thumb/v7-m/nofp\libc_nano.a(lib_a-impure.o)
 .ARM.attributes
                0x0000000000000000       0x2d c:/users/18111/appdata/roaming/xpacks/@xpack-dev-tools/arm-none-eabi-gcc/11.2.1-1.1.1/.content/bin/../lib/gcc/arm-none-eabi/11.2.1/../../../../arm-none-eabi/lib/thumb/v7-m/nofp\libc_nano.a(lib_a-impure.o)
 .text          0x0000000000000000        0x0 c:/users/18111/appdata/roaming/xpacks/@xpack-dev-tools/arm-none-eabi-gcc/11.2.1-1.1.1/.content/bin/../lib/gcc/arm-none-eabi/11.2.1/../../../../arm-none-eabi/lib/thumb/v7-m/nofp\libc_nano.a(lib_a-init.o)
 .data          0x0000000000000000        0x0 c:/users/18111/appdata/roaming/xpacks/@xpack-dev-tools/arm-none-eabi-gcc/11.2.1-1.1.1/.content/bin/../lib/gcc/arm-none-eabi/11.2.1/../../../../arm-none-eabi/lib/thumb/v7-m/nofp\libc_nano.a(lib_a-init.o)
 .bss           0x0000000000000000        0x0 c:/users/18111/appdata/roaming/xpacks/@xpack-dev-tools/arm-none-eabi-gcc/11.2.1-1.1.1/.content/bin/../lib/gcc/arm-none-eabi/11.2.1/../../../../arm-none-eabi/lib/thumb/v7-m/nofp\libc_nano.a(lib_a-init.o)
 .text.__libc_init_array
                0x0000000000000000       0x48 c:/users/18111/appdata/roaming/xpacks/@xpack-dev-tools/arm-none-eabi-gcc/11.2.1-1.1.1/.content/bin/../lib/gcc/arm-none-eabi/11.2.1/../../../../arm-none-eabi/lib/thumb/v7-m/nofp\libc_nano.a(lib_a-init.o)
 .comment       0x0000000000000000       0x3a c:/users/18111/appdata/roaming/xpacks/@xpack-dev-tools/arm-none-eabi-gcc/11.2.1-1.1.1/.content/bin/../lib/gcc/arm-none-eabi/11.2.1/../../../../arm-none-eabi/lib/thumb/v7-m/nofp\libc_nano.a(lib_a-init.o)
 .ARM.attributes
                0x0000000000000000       0x2d c:/users/18111/appdata/roaming/xpacks/@xpack-dev-tools/arm-none-eabi-gcc/11.2.1-1.1.1/.content/bin/../lib/gcc/arm-none-eabi/11.2.1/../../../../arm-none-eabi/lib/thumb/v7-m/nofp\libc_nano.a(lib_a-init.o)
 .text          0x0000000000000000        0x0 c:/users/18111/appdata/roaming/xpacks/@xpack-dev-tools/arm-none-eabi-gcc/11.2.1-1.1.1/.content/bin/../lib/gcc/arm-none-eabi/11.2.1/../../../../arm-none-eabi/lib/thumb/v7-m/nofp\libc_nano.a(lib_a-memset.o)
 .data          0x0000000000000000        0x0 c:/users/18111/appdata/roaming/xpacks/@xpack-dev-tools/arm-none-eabi-gcc/11.2.1-1.1.1/.content/bin/../lib/gcc/arm-none-eabi/11.2.1/../../../../arm-none-eabi/lib/thumb/v7-m/nofp\libc_nano.a(lib_a-memset.o)
 .bss           0x0000000000000000        0x0 c:/users/18111/appdata/roaming/xpacks/@xpack-dev-tools/arm-none-eabi-gcc/11.2.1-1.1.1/.content/bin/../lib/gcc/arm-none-eabi/11.2.1/../../../../arm-none-eabi/lib/thumb/v7-m/nofp\libc_nano.a(lib_a-memset.o)
 .text.memset   0x0000000000000000       0x10 c:/users/18111/appdata/roaming/xpacks/@xpack-dev-tools/arm-none-eabi-gcc/11.2.1-1.1.1/.content/bin/../lib/gcc/arm-none-eabi/11.2.1/../../../../arm-none-eabi/lib/thumb/v7-m/nofp\libc_nano.a(lib_a-memset.o)
 .comment       0x0000000000000000       0x3a c:/users/18111/appdata/roaming/xpacks/@xpack-dev-tools/arm-none-eabi-gcc/11.2.1-1.1.1/.content/bin/../lib/gcc/arm-none-eabi/11.2.1/../../../../arm-none-eabi/lib/thumb/v7-m/nofp\libc_nano.a(lib_a-memset.o)
 .ARM.attributes
                0x0000000000000000       0x2d c:/users/18111/appdata/roaming/xpacks/@xpack-dev-tools/arm-none-eabi-gcc/11.2.1-1.1.1/.content/bin/../lib/gcc/arm-none-eabi/11.2.1/../../../../arm-none-eabi/lib/thumb/v7-m/nofp\libc_nano.a(lib_a-memset.o)
 .text          0x0000000000000000        0x0 c:/users/18111/appdata/roaming/xpacks/@xpack-dev-tools/arm-none-eabi-gcc/11.2.1-1.1.1/.content/bin/../lib/gcc/arm-none-eabi/11.2.1/../../../../arm-none-eabi/lib/thumb/v7-m/nofp\libc_nano.a(lib_a-__atexit.o)
 .data          0x0000000000000000        0x0 c:/users/18111/appdata/roaming/xpacks/@xpack-dev-tools/arm-none-eabi-gcc/11.2.1-1.1.1/.content/bin/../lib/gcc/arm-none-eabi/11.2.1/../../../../arm-none-eabi/lib/thumb/v7-m/nofp\libc_nano.a(lib_a-__atexit.o)
 .bss           0x0000000000000000        0x0 c:/users/18111/appdata/roaming/xpacks/@xpack-dev-tools/arm-none-eabi-gcc/11.2.1-1.1.1/.content/bin/../lib/gcc/arm-none-eabi/11.2.1/../../../../arm-none-eabi/lib/thumb/v7-m/nofp\libc_nano.a(lib_a-__atexit.o)
 .text.__register_exitproc
                0x0000000000000000       0xa0 c:/users/18111/appdata/roaming/xpacks/@xpack-dev-tools/arm-none-eabi-gcc/11.2.1-1.1.1/.content/bin/../lib/gcc/arm-none-eabi/11.2.1/../../../../arm-none-eabi/lib/thumb/v7-m/nofp\libc_nano.a(lib_a-__atexit.o)
 .bss._global_atexit0
                0x0000000000000000       0x8c c:/users/18111/appdata/roaming/xpacks/@xpack-dev-tools/arm-none-eabi-gcc/11.2.1-1.1.1/.content/bin/../lib/gcc/arm-none-eabi/11.2.1/../../../../arm-none-eabi/lib/thumb/v7-m/nofp\libc_nano.a(lib_a-__atexit.o)
 .data.__atexit_dummy
                0x0000000000000000        0x4 c:/users/18111/appdata/roaming/xpacks/@xpack-dev-tools/arm-none-eabi-gcc/11.2.1-1.1.1/.content/bin/../lib/gcc/arm-none-eabi/11.2.1/../../../../arm-none-eabi/lib/thumb/v7-m/nofp\libc_nano.a(lib_a-__atexit.o)
 .comment       0x0000000000000000       0x3a c:/users/18111/appdata/roaming/xpacks/@xpack-dev-tools/arm-none-eabi-gcc/11.2.1-1.1.1/.content/bin/../lib/gcc/arm-none-eabi/11.2.1/../../../../arm-none-eabi/lib/thumb/v7-m/nofp\libc_nano.a(lib_a-__atexit.o)
 .ARM.attributes
                0x0000000000000000       0x2d c:/users/18111/appdata/roaming/xpacks/@xpack-dev-tools/arm-none-eabi-gcc/11.2.1-1.1.1/.content/bin/../lib/gcc/arm-none-eabi/11.2.1/../../../../arm-none-eabi/lib/thumb/v7-m/nofp\libc_nano.a(lib_a-__atexit.o)
 .text          0x0000000000000000        0x0 c:/users/18111/appdata/roaming/xpacks/@xpack-dev-tools/arm-none-eabi-gcc/11.2.1-1.1.1/.content/bin/../lib/gcc/arm-none-eabi/11.2.1/../../../../arm-none-eabi/lib/thumb/v7-m/nofp\libc_nano.a(lib_a-__call_atexit.o)
 .data          0x0000000000000000        0x0 c:/users/18111/appdata/roaming/xpacks/@xpack-dev-tools/arm-none-eabi-gcc/11.2.1-1.1.1/.content/bin/../lib/gcc/arm-none-eabi/11.2.1/../../../../arm-none-eabi/lib/thumb/v7-m/nofp\libc_nano.a(lib_a-__call_atexit.o)
 .bss           0x0000000000000000        0x0 c:/users/18111/appdata/roaming/xpacks/@xpack-dev-tools/arm-none-eabi-gcc/11.2.1-1.1.1/.content/bin/../lib/gcc/arm-none-eabi/11.2.1/../../../../arm-none-eabi/lib/thumb/v7-m/nofp\libc_nano.a(lib_a-__call_atexit.o)
 .text.__call_exitprocs
                0x0000000000000000       0xa4 c:/users/18111/appdata/roaming/xpacks/@xpack-dev-tools/arm-none-eabi-gcc/11.2.1-1.1.1/.content/bin/../lib/gcc/arm-none-eabi/11.2.1/../../../../arm-none-eabi/lib/thumb/v7-m/nofp\libc_nano.a(lib_a-__call_atexit.o)
 .bss._global_atexit
                0x0000000000000000        0x4 c:/users/18111/appdata/roaming/xpacks/@xpack-dev-tools/arm-none-eabi-gcc/11.2.1-1.1.1/.content/bin/../lib/gcc/arm-none-eabi/11.2.1/../../../../arm-none-eabi/lib/thumb/v7-m/nofp\libc_nano.a(lib_a-__call_atexit.o)
 .comment       0x0000000000000000       0x3a c:/users/18111/appdata/roaming/xpacks/@xpack-dev-tools/arm-none-eabi-gcc/11.2.1-1.1.1/.content/bin/../lib/gcc/arm-none-eabi/11.2.1/../../../../arm-none-eabi/lib/thumb/v7-m/nofp\libc_nano.a(lib_a-__call_atexit.o)
 .ARM.attributes
                0x0000000000000000       0x2d c:/users/18111/appdata/roaming/xpacks/@xpack-dev-tools/arm-none-eabi-gcc/11.2.1-1.1.1/.content/bin/../lib/gcc/arm-none-eabi/11.2.1/../../../../arm-none-eabi/lib/thumb/v7-m/nofp\libc_nano.a(lib_a-__call_atexit.o)
 .text          0x0000000000000000        0x0 c:/users/18111/appdata/roaming/xpacks/@xpack-dev-tools/arm-none-eabi-gcc/11.2.1-1.1.1/.content/bin/../lib/gcc/arm-none-eabi/11.2.1/../../../../arm-none-eabi/lib/thumb/v7-m/nofp\libnosys.a(_exit.o)
 .data          0x0000000000000000        0x0 c:/users/18111/appdata/roaming/xpacks/@xpack-dev-tools/arm-none-eabi-gcc/11.2.1-1.1.1/.content/bin/../lib/gcc/arm-none-eabi/11.2.1/../../../../arm-none-eabi/lib/thumb/v7-m/nofp\libnosys.a(_exit.o)
 .bss           0x0000000000000000        0x0 c:/users/18111/appdata/roaming/xpacks/@xpack-dev-tools/arm-none-eabi-gcc/11.2.1-1.1.1/.content/bin/../lib/gcc/arm-none-eabi/11.2.1/../../../../arm-none-eabi/lib/thumb/v7-m/nofp\libnosys.a(_exit.o)
 .text._exit    0x0000000000000000        0x4 c:/users/18111/appdata/roaming/xpacks/@xpack-dev-tools/arm-none-eabi-gcc/11.2.1-1.1.1/.content/bin/../lib/gcc/arm-none-eabi/11.2.1/../../../../arm-none-eabi/lib/thumb/v7-m/nofp\libnosys.a(_exit.o)
 .ARM.extab.text._exit
                0x0000000000000000        0x0 c:/users/18111/appdata/roaming/xpacks/@xpack-dev-tools/arm-none-eabi-gcc/11.2.1-1.1.1/.content/bin/../lib/gcc/arm-none-eabi/11.2.1/../../../../arm-none-eabi/lib/thumb/v7-m/nofp\libnosys.a(_exit.o)
 .ARM.exidx.text._exit
                0x0000000000000000        0x8 c:/users/18111/appdata/roaming/xpacks/@xpack-dev-tools/arm-none-eabi-gcc/11.2.1-1.1.1/.content/bin/../lib/gcc/arm-none-eabi/11.2.1/../../../../arm-none-eabi/lib/thumb/v7-m/nofp\libnosys.a(_exit.o)
 .comment       0x0000000000000000       0x3a c:/users/18111/appdata/roaming/xpacks/@xpack-dev-tools/arm-none-eabi-gcc/11.2.1-1.1.1/.content/bin/../lib/gcc/arm-none-eabi/11.2.1/../../../../arm-none-eabi/lib/thumb/v7-m/nofp\libnosys.a(_exit.o)
 .ARM.attributes
                0x0000000000000000       0x2d c:/users/18111/appdata/roaming/xpacks/@xpack-dev-tools/arm-none-eabi-gcc/11.2.1-1.1.1/.content/bin/../lib/gcc/arm-none-eabi/11.2.1/../../../../arm-none-eabi/lib/thumb/v7-m/nofp\libnosys.a(_exit.o)
 .text          0x0000000000000000        0x0 c:/users/18111/appdata/roaming/xpacks/@xpack-dev-tools/arm-none-eabi-gcc/11.2.1-1.1.1/.content/bin/../lib/gcc/arm-none-eabi/11.2.1/thumb/v7-m/nofp/crtend.o
 .data          0x0000000000000000        0x0 c:/users/18111/appdata/roaming/xpacks/@xpack-dev-tools/arm-none-eabi-gcc/11.2.1-1.1.1/.content/bin/../lib/gcc/arm-none-eabi/11.2.1/thumb/v7-m/nofp/crtend.o
 .bss           0x0000000000000000        0x0 c:/users/18111/appdata/roaming/xpacks/@xpack-dev-tools/arm-none-eabi-gcc/11.2.1-1.1.1/.content/bin/../lib/gcc/arm-none-eabi/11.2.1/thumb/v7-m/nofp/crtend.o
 .rodata.all_implied_fbits
                0x0000000000000000       0x24 c:/users/18111/appdata/roaming/xpacks/@xpack-dev-tools/arm-none-eabi-gcc/11.2.1-1.1.1/.content/bin/../lib/gcc/arm-none-eabi/11.2.1/thumb/v7-m/nofp/crtend.o
 .eh_frame      0x0000000000000000        0x4 c:/users/18111/appdata/roaming/xpacks/@xpack-dev-tools/arm-none-eabi-gcc/11.2.1-1.1.1/.content/bin/../lib/gcc/arm-none-eabi/11.2.1/thumb/v7-m/nofp/crtend.o
 .tm_clone_table
                0x0000000000000000        0x0 c:/users/18111/appdata/roaming/xpacks/@xpack-dev-tools/arm-none-eabi-gcc/11.2.1-1.1.1/.content/bin/../lib/gcc/arm-none-eabi/11.2.1/thumb/v7-m/nofp/crtend.o
 .comment       0x0000000000000000       0x3a c:/users/18111/appdata/roaming/xpacks/@xpack-dev-tools/arm-none-eabi-gcc/11.2.1-1.1.1/.content/bin/../lib/gcc/arm-none-eabi/11.2.1/thumb/v7-m/nofp/crtend.o
 .ARM.attributes
                0x0000000000000000       0x2d c:/users/18111/appdata/roaming/xpacks/@xpack-dev-tools/arm-none-eabi-gcc/11.2.1-1.1.1/.content/bin/../lib/gcc/arm-none-eabi/11.2.1/thumb/v7-m/nofp/crtend.o
 .text          0x0000000000000000        0x0 c:/users/18111/appdata/roaming/xpacks/@xpack-dev-tools/arm-none-eabi-gcc/11.2.1-1.1.1/.content/bin/../lib/gcc/arm-none-eabi/11.2.1/thumb/v7-m/nofp/crtn.o
 .data          0x0000000000000000        0x0 c:/users/18111/appdata/roaming/xpacks/@xpack-dev-tools/arm-none-eabi-gcc/11.2.1-1.1.1/.content/bin/../lib/gcc/arm-none-eabi/11.2.1/thumb/v7-m/nofp/crtn.o
 .bss           0x0000000000000000        0x0 c:/users/18111/appdata/roaming/xpacks/@xpack-dev-tools/arm-none-eabi-gcc/11.2.1-1.1.1/.content/bin/../lib/gcc/arm-none-eabi/11.2.1/thumb/v7-m/nofp/crtn.o
 .init          0x0000000000000000        0x8 c:/users/18111/appdata/roaming/xpacks/@xpack-dev-tools/arm-none-eabi-gcc/11.2.1-1.1.1/.content/bin/../lib/gcc/arm-none-eabi/11.2.1/thumb/v7-m/nofp/crtn.o
 .fini          0x0000000000000000        0x8 c:/users/18111/appdata/roaming/xpacks/@xpack-dev-tools/arm-none-eabi-gcc/11.2.1-1.1.1/.content/bin/../lib/gcc/arm-none-eabi/11.2.1/thumb/v7-m/nofp/crtn.o
 .ARM.attributes
                0x0000000000000000       0x1d c:/users/18111/appdata/roaming/xpacks/@xpack-dev-tools/arm-none-eabi-gcc/11.2.1-1.1.1/.content/bin/../lib/gcc/arm-none-eabi/11.2.1/thumb/v7-m/nofp/crtn.o

Memory Configuration

Name             Origin             Length             Attributes
RAM              0x0000000020000000 0x0000000000002000 xrw
FLASH            0x0000000008000000 0x0000000000020000 xr
*default*        0x0000000000000000 0xffffffffffffffff

Linker script and memory map

LOAD c:/users/18111/appdata/roaming/xpacks/@xpack-dev-tools/arm-none-eabi-gcc/11.2.1-1.1.1/.content/bin/../lib/gcc/arm-none-eabi/11.2.1/thumb/v7-m/nofp/crti.o
LOAD c:/users/18111/appdata/roaming/xpacks/@xpack-dev-tools/arm-none-eabi-gcc/11.2.1-1.1.1/.content/bin/../lib/gcc/arm-none-eabi/11.2.1/thumb/v7-m/nofp/crtbegin.o
LOAD c:/users/18111/appdata/roaming/xpacks/@xpack-dev-tools/arm-none-eabi-gcc/11.2.1-1.1.1/.content/bin/../lib/gcc/arm-none-eabi/11.2.1/../../../../arm-none-eabi/lib/thumb/v7-m/nofp/crt0.o
LOAD build/startup_stm32f100xb.o
LOAD build/calculator.o
LOAD build/test.o
LOAD c:/users/18111/appdata/roaming/xpacks/@xpack-dev-tools/arm-none-eabi-gcc/11.2.1-1.1.1/.content/bin/../lib/gcc/arm-none-eabi/11.2.1/../../../../arm-none-eabi/lib/thumb/v7-m/nofp\libc_nano.a
LOAD c:/users/18111/appdata/roaming/xpacks/@xpack-dev-tools/arm-none-eabi-gcc/11.2.1-1.1.1/.content/bin/../lib/gcc/arm-none-eabi/11.2.1/../../../../arm-none-eabi/lib/thumb/v7-m/nofp\libm.a
LOAD c:/users/18111/appdata/roaming/xpacks/@xpack-dev-tools/arm-none-eabi-gcc/11.2.1-1.1.1/.content/bin/../lib/gcc/arm-none-eabi/11.2.1/../../../../arm-none-eabi/lib/thumb/v7-m/nofp\libnosys.a
START GROUP
LOAD c:/users/18111/appdata/roaming/xpacks/@xpack-dev-tools/arm-none-eabi-gcc/11.2.1-1.1.1/.content/bin/../lib/gcc/arm-none-eabi/11.2.1/thumb/v7-m/nofp\libgcc.a
LOAD c:/users/18111/appdata/roaming/xpacks/@xpack-dev-tools/arm-none-eabi-gcc/11.2.1-1.1.1/.content/bin/../lib/gcc/arm-none-eabi/11.2.1/../../../../arm-none-eabi/lib/thumb/v7-m/nofp\libc_nano.a
END GROUP
START GROUP
LOAD c:/users/18111/appdata/roaming/xpacks/@xpack-dev-tools/arm-none-eabi-gcc/11.2.1-1.1.1/.content/bin/../lib/gcc/arm-none-eabi/11.2.1/thumb/v7-m/nofp\libgcc.a
LOAD c:/users/18111/appdata/roaming/xpacks/@xpack-dev-tools/arm-none-eabi-gcc/11.2.1-1.1.1/.content/bin/../lib/gcc/arm-none-eabi/11.2.1/../../../../arm-none-eabi/lib/thumb/v7-m/nofp\libc_nano.a
END GROUP
LOAD c:/users/18111/appdata/roaming/xpacks/@xpack-dev-tools/arm-none-eabi-gcc/11.2.1-1.1.1/.content/bin/../lib/gcc/arm-none-eabi/11.2.1/thumb/v7-m/nofp/crtend.o
LOAD c:/users/18111/appdata/roaming/xpacks/@xpack-dev-tools/arm-none-eabi-gcc/11.2.1-1.1.1/.content/bin/../lib/gcc/arm-none-eabi/11.2.1/thumb/v7-m/nofp/crtn.o
                0x0000000020002000                _estack = (ORIGIN (RAM) + LENGTH (RAM))
                0x0000000000000400                _Min_Stack_Size = 0x400

.isr_vector     0x0000000008000000      0x1d0
                0x0000000008000000                . = ALIGN (0x4)
 *(.isr_vector)
 .isr_vector    0x0000000008000000      0x1d0 build/startup_stm32f100xb.o
                0x00000000080001d0                . = ALIGN (0x4)

.text           0x00000000080001d0      0x140
                0x00000000080001d0                . = ALIGN (0x4)
 *(.text)
 .text          0x00000000080001d0       0x40 build/startup_stm32f100xb.o
                0x00000000080001d0                Reset_Handler
 .text          0x0000000008000210       0xf6 build/calculator.o
                0x0000000008000210                Main
 *fill*         0x0000000008000306        0x2 
 .text          0x0000000008000308        0x8 build/test.o
                0x0000000008000308                Init_Test
                0x0000000008000310                . = ALIGN (0x4)
                0x0000000008000310                _etext = .

.glue_7         0x0000000008000310        0x0
 .glue_7        0x0000000008000310        0x0 linker stubs

.glue_7t        0x0000000008000310        0x0
 .glue_7t       0x0000000008000310        0x0 linker stubs

.vfp11_veneer   0x0000000008000310        0x0
 .vfp11_veneer  0x0000000008000310        0x0 linker stubs

.v4_bx          0x0000000008000310        0x0
 .v4_bx         0x0000000008000310        0x0 linker stubs

.init           0x0000000008000310        0x4
 .init          0x0000000008000310        0x4 c:/users/18111/appdata/roaming/xpacks/@xpack-dev-tools/arm-none-eabi-gcc/11.2.1-1.1.1/.content/bin/../lib/gcc/arm-none-eabi/11.2.1/thumb/v7-m/nofp/crti.o
                0x0000000008000310                _init

.fini           0x0000000008000314        0x4
 .fini          0x0000000008000314        0x4 c:/users/18111/appdata/roaming/xpacks/@xpack-dev-tools/arm-none-eabi-gcc/11.2.1-1.1.1/.content/bin/../lib/gcc/arm-none-eabi/11.2.1/thumb/v7-m/nofp/crti.o
                0x0000000008000314                _fini

.text.Default_Handler
                0x0000000008000318        0x2
 .text.Default_Handler
                0x0000000008000318        0x2 build/startup_stm32f100xb.o
                0x0000000008000318                RTC_Alarm_IRQHandler
                0x0000000008000318                EXTI2_IRQHandler
                0x0000000008000318                DebugMon_Handler
                0x0000000008000318                TIM1_CC_IRQHandler
                0x0000000008000318                HardFault_Handler
                0x0000000008000318                SysTick_Handler
                0x0000000008000318                PVD_IRQHandler
                0x0000000008000318                PendSV_Handler
                0x0000000008000318                NMI_Handler
                0x0000000008000318                EXTI3_IRQHandler
                0x0000000008000318                EXTI0_IRQHandler
                0x0000000008000318                TIM1_UP_TIM16_IRQHandler
                0x0000000008000318                UsageFault_Handler
                0x0000000008000318                SPI1_IRQHandler
                0x0000000008000318                TAMPER_IRQHandler
                0x0000000008000318                TIM6_DAC_IRQHandler
                0x0000000008000318                DMA1_Channel4_IRQHandler
                0x0000000008000318                ADC1_IRQHandler
                0x0000000008000318                USART3_IRQHandler
                0x0000000008000318                RTC_IRQHandler
                0x0000000008000318                DMA1_Channel7_IRQHandler
                0x0000000008000318                TIM4_IRQHandler
                0x0000000008000318                I2C1_EV_IRQHandler
                0x0000000008000318                DMA1_Channel6_IRQHandler
                0x0000000008000318                TIM3_IRQHandler
                0x0000000008000318                RCC_IRQHandler
                0x0000000008000318                DMA1_Channel1_IRQHandler
                0x0000000008000318                Default_Handler
                0x0000000008000318                CEC_IRQHandler
                0x0000000008000318                EXTI15_10_IRQHandler
                0x0000000008000318                TIM7_IRQHandler
                0x0000000008000318                EXTI9_5_IRQHandler
                0x0000000008000318                MemManage_Handler
                0x0000000008000318                SVC_Handler
                0x0000000008000318                DMA1_Channel5_IRQHandler
                0x0000000008000318                EXTI4_IRQHandler
                0x0000000008000318                TIM1_TRG_COM_TIM17_IRQHandler
                0x0000000008000318                DMA1_Channel3_IRQHandler
                0x0000000008000318                WWDG_IRQHandler
                0x0000000008000318                TIM2_IRQHandler
                0x0000000008000318                EXTI1_IRQHandler
                0x0000000008000318                USART2_IRQHandler
                0x0000000008000318                DMA1_Channel2_IRQHandler
                0x0000000008000318                FLASH_IRQHandler
                0x0000000008000318                BusFault_Handler
                0x0000000008000318                USART1_IRQHandler
                0x0000000008000318                I2C1_ER_IRQHandler
                0x0000000008000318                TIM1_BRK_TIM15_IRQHandler

.iplt           0x000000000800031c        0x0
 .iplt          0x000000000800031c        0x0 build/startup_stm32f100xb.o

.rodata         0x000000000800031a        0xe
                0x000000000800031c                . = ALIGN (0x4)
 *fill*         0x000000000800031a        0x2 
 *(.rodata)
 .rodata        0x000000000800031c        0xa build/test.o
                0x0000000008000328                . = ALIGN (0x4)
 *fill*         0x0000000008000326        0x2 

.rel.dyn        0x0000000008000328        0x0
 .rel.iplt      0x0000000008000328        0x0 build/startup_stm32f100xb.o

.data           0x0000000020000000        0x0 load address 0x0000000008000328
                0x0000000020000000                . = ALIGN (0x4)
 *(.data)
                0x0000000020000000                . = ALIGN (0x4)
OUTPUT(build/firmware.elf elf32-littlearm)
LOAD linker stubs

.igot.plt       0x0000000020000000        0x0 load address 0x0000000008000328
 .igot.plt      0x0000000020000000        0x0 build/startup_stm32f100xb.o

.ARM.attributes
                0x0000000000000000       0x29
 .ARM.attributes
                0x0000000000000000       0x1d c:/users/18111/appdata/roaming/xpacks/@xpack-dev-tools/arm-none-eabi-gcc/11.2.1-1.1.1/.content/bin/../lib/gcc/arm-none-eabi/11.2.1/thumb/v7-m/nofp/crti.o
 .ARM.attributes
                0x000000000000001d       0x21 build/startup_stm32f100xb.o
 .ARM.attributes
                0x000000000000003e       0x21 build/calculator.o
 .ARM.attributes
                0x000000000000005f       0x21 build/test.o

.debug_line     0x0000000000000000      0x142
 .debug_line    0x0000000000000000       0x6f build/startup_stm32f100xb.o
 .debug_line    0x000000000000006f       0x95 build/calculator.o
 .debug_line    0x0000000000000104       0x3e build/test.o

.debug_info     0x0000000000000000       0x6e
 .debug_info    0x0000000000000000       0x22 build/startup_stm32f100xb.o
 .debug_info    0x0000000000000022       0x26 build/calculator.o
 .debug_info    0x0000000000000048       0x26 build/test.o

.debug_abbrev   0x0000000000000000       0x3a
 .debug_abbrev  0x0000000000000000       0x12 build/startup_stm32f100xb.o
 .debug_abbrev  0x0000000000000012       0x14 build/calculator.o
 .debug_abbrev  0x0000000000000026       0x14 build/test.o

.debug_aranges  0x0000000000000000       0x68
 .debug_aranges
                0x0000000000000000       0x28 build/startup_stm32f100xb.o
 .debug_aranges
                0x0000000000000028       0x20 build/calculator.o
 .debug_aranges
                0x0000000000000048       0x20 build/test.o

.debug_str      0x0000000000000000       0x73
 .debug_str     0x0000000000000000       0x53 build/startup_stm32f100xb.o
 .debug_str     0x0000000000000053       0x13 build/calculator.o
                                         0x46 (size before relaxing)
 .debug_str     0x0000000000000066        0xd build/test.o
                                         0x40 (size before relaxing)

.debug_ranges   0x0000000000000000       0x20
 .debug_ranges  0x0000000000000000       0x20 build/startup_stm32f100xb.o

Cross Reference Table

Symbol                                            File
ADC1_IRQHandler                                   build/startup_stm32f100xb.o
BusFault_Handler                                  build/startup_stm32f100xb.o
CEC_IRQHandler                                    build/startup_stm32f100xb.o
DMA1_Channel1_IRQHandler                          build/startup_stm32f100xb.o
DMA1_Channel2_IRQHandler                          build/startup_stm32f100xb.o
DMA1_Channel3_IRQHandler                          build/startup_stm32f100xb.o
DMA1_Channel4_IRQHandler                          build/startup_stm32f100xb.o
DMA1_Channel5_IRQHandler                          build/startup_stm32f100xb.o
DMA1_Channel6_IRQHandler                          build/startup_stm32f100xb.o
DMA1_Channel7_IRQHandler                          build/startup_stm32f100xb.o
DebugMon_Handler                                  build/startup_stm32f100xb.o
Default_Handler                                   build/startup_stm32f100xb.o
EXTI0_IRQHandler                                  build/startup_stm32f100xb.o
EXTI15_10_IRQHandler                              build/startup_stm32f100xb.o
EXTI1_IRQHandler                                  build/startup_stm32f100xb.o
EXTI2_IRQHandler                                  build/startup_stm32f100xb.o
EXTI3_IRQHandler                                  build/startup_stm32f100xb.o
EXTI4_IRQHandler                                  build/startup_stm32f100xb.o
EXTI9_5_IRQHandler                                build/startup_stm32f100xb.o
FLASH_IRQHandler                                  build/startup_stm32f100xb.o
HardFault_Handler                                 build/startup_stm32f100xb.o
I2C1_ER_IRQHandler                                build/startup_stm32f100xb.o
I2C1_EV_IRQHandler                                build/startup_stm32f100xb.o
I2C2_ER_IRQHandler                                build/startup_stm32f100xb.o
I2C2_EV_IRQHandler                                build/startup_stm32f100xb.o
Init_Test                                         build/test.o
                                                  build/startup_stm32f100xb.o
Main                                              build/calculator.o
                                                  build/startup_stm32f100xb.o
MemManage_Handler                                 build/startup_stm32f100xb.o
NMI_Handler                                       build/startup_stm32f100xb.o
PVD_IRQHandler                                    build/startup_stm32f100xb.o
PendSV_Handler                                    build/startup_stm32f100xb.o
RCC_IRQHandler                                    build/startup_stm32f100xb.o
RTC_Alarm_IRQHandler                              build/startup_stm32f100xb.o
RTC_IRQHandler                                    build/startup_stm32f100xb.o
Reset_Handler                                     build/startup_stm32f100xb.o
SPI1_IRQHandler                                   build/startup_stm32f100xb.o
SVC_Handler                                       build/startup_stm32f100xb.o
SysTick_Handler                                   build/startup_stm32f100xb.o
TAMPER_IRQHandler                                 build/startup_stm32f100xb.o
TIM1_BRK_TIM15_IRQHandler                         build/startup_stm32f100xb.o
TIM1_CC_IRQHandler                                build/startup_stm32f100xb.o
TIM1_TRG_COM_TIM17_IRQHandler                     build/startup_stm32f100xb.o
TIM1_UP_TIM16_IRQHandler                          build/startup_stm32f100xb.o
TIM2_IRQHandler                                   build/startup_stm32f100xb.o
TIM3_IRQHandler                                   build/startup_stm32f100xb.o
TIM4_IRQHandler                                   build/startup_stm32f100xb.o
TIM6_DAC_IRQHandler                               build/startup_stm32f100xb.o
TIM7_IRQHandler                                   build/startup_stm32f100xb.o
USART1_IRQHandler                                 build/startup_stm32f100xb.o
USART2_IRQHandler                                 build/startup_stm32f100xb.o
USART3_IRQHandler                                 build/startup_stm32f100xb.o
UsageFault_Handler                                build/startup_stm32f100xb.o
WWDG_IRQHandler                                   build/startup_stm32f100xb.o
_ITM_deregisterTMCloneTable                       c:/users/18111/appdata/roaming/xpacks/@xpack-dev-tools/arm-none-eabi-gcc/11.2.1-1.1.1/.content/bin/../lib/gcc/arm-none-eabi/11.2.1/thumb/v7-m/nofp/crtbegin.o
_ITM_registerTMCloneTable                         c:/users/18111/appdata/roaming/xpacks/@xpack-dev-tools/arm-none-eabi-gcc/11.2.1-1.1.1/.content/bin/../lib/gcc/arm-none-eabi/11.2.1/thumb/v7-m/nofp/crtbegin.o
__TMC_END__                                       c:/users/18111/appdata/roaming/xpacks/@xpack-dev-tools/arm-none-eabi-gcc/11.2.1-1.1.1/.content/bin/../lib/gcc/arm-none-eabi/11.2.1/thumb/v7-m/nofp/crtend.o
                                                  c:/users/18111/appdata/roaming/xpacks/@xpack-dev-tools/arm-none-eabi-gcc/11.2.1-1.1.1/.content/bin/../lib/gcc/arm-none-eabi/11.2.1/thumb/v7-m/nofp/crtbegin.o
__atexit_dummy                                    c:/users/18111/appdata/roaming/xpacks/@xpack-dev-tools/arm-none-eabi-gcc/11.2.1-1.1.1/.content/bin/../lib/gcc/arm-none-eabi/11.2.1/../../../../arm-none-eabi/lib/thumb/v7-m/nofp\libc_nano.a(lib_a-__atexit.o)
__bss_end__                                       c:/users/18111/appdata/roaming/xpacks/@xpack-dev-tools/arm-none-eabi-gcc/11.2.1-1.1.1/.content/bin/../lib/gcc/arm-none-eabi/11.2.1/../../../../arm-none-eabi/lib/thumb/v7-m/nofp/crt0.o
__bss_start__                                     c:/users/18111/appdata/roaming/xpacks/@xpack-dev-tools/arm-none-eabi-gcc/11.2.1-1.1.1/.content/bin/../lib/gcc/arm-none-eabi/11.2.1/../../../../arm-none-eabi/lib/thumb/v7-m/nofp/crt0.o
__call_exitprocs                                  c:/users/18111/appdata/roaming/xpacks/@xpack-dev-tools/arm-none-eabi-gcc/11.2.1-1.1.1/.content/bin/../lib/gcc/arm-none-eabi/11.2.1/../../../../arm-none-eabi/lib/thumb/v7-m/nofp\libc_nano.a(lib_a-__call_atexit.o)
                                                  c:/users/18111/appdata/roaming/xpacks/@xpack-dev-tools/arm-none-eabi-gcc/11.2.1-1.1.1/.content/bin/../lib/gcc/arm-none-eabi/11.2.1/../../../../arm-none-eabi/lib/thumb/v7-m/nofp\libc_nano.a(lib_a-__atexit.o)
                                                  c:/users/18111/appdata/roaming/xpacks/@xpack-dev-tools/arm-none-eabi-gcc/11.2.1-1.1.1/.content/bin/../lib/gcc/arm-none-eabi/11.2.1/../../../../arm-none-eabi/lib/thumb/v7-m/nofp\libc_nano.a(lib_a-exit.o)
__deregister_frame_info                           c:/users/18111/appdata/roaming/xpacks/@xpack-dev-tools/arm-none-eabi-gcc/11.2.1-1.1.1/.content/bin/../lib/gcc/arm-none-eabi/11.2.1/thumb/v7-m/nofp/crtbegin.o
__dso_handle                                      c:/users/18111/appdata/roaming/xpacks/@xpack-dev-tools/arm-none-eabi-gcc/11.2.1-1.1.1/.content/bin/../lib/gcc/arm-none-eabi/11.2.1/thumb/v7-m/nofp/crtbegin.o
__fini_array_end                                  c:/users/18111/appdata/roaming/xpacks/@xpack-dev-tools/arm-none-eabi-gcc/11.2.1-1.1.1/.content/bin/../lib/gcc/arm-none-eabi/11.2.1/../../../../arm-none-eabi/lib/thumb/v7-m/nofp\libc_nano.a(lib_a-fini.o)
__fini_array_start                                c:/users/18111/appdata/roaming/xpacks/@xpack-dev-tools/arm-none-eabi-gcc/11.2.1-1.1.1/.content/bin/../lib/gcc/arm-none-eabi/11.2.1/../../../../arm-none-eabi/lib/thumb/v7-m/nofp\libc_nano.a(lib_a-fini.o)
__init_array_end                                  c:/users/18111/appdata/roaming/xpacks/@xpack-dev-tools/arm-none-eabi-gcc/11.2.1-1.1.1/.content/bin/../lib/gcc/arm-none-eabi/11.2.1/../../../../arm-none-eabi/lib/thumb/v7-m/nofp\libc_nano.a(lib_a-init.o)
__init_array_start                                c:/users/18111/appdata/roaming/xpacks/@xpack-dev-tools/arm-none-eabi-gcc/11.2.1-1.1.1/.content/bin/../lib/gcc/arm-none-eabi/11.2.1/../../../../arm-none-eabi/lib/thumb/v7-m/nofp\libc_nano.a(lib_a-init.o)
__libc_fini_array                                 c:/users/18111/appdata/roaming/xpacks/@xpack-dev-tools/arm-none-eabi-gcc/11.2.1-1.1.1/.content/bin/../lib/gcc/arm-none-eabi/11.2.1/../../../../arm-none-eabi/lib/thumb/v7-m/nofp\libc_nano.a(lib_a-fini.o)
                                                  c:/users/18111/appdata/roaming/xpacks/@xpack-dev-tools/arm-none-eabi-gcc/11.2.1-1.1.1/.content/bin/../lib/gcc/arm-none-eabi/11.2.1/../../../../arm-none-eabi/lib/thumb/v7-m/nofp/crt0.o
__libc_init_array                                 c:/users/18111/appdata/roaming/xpacks/@xpack-dev-tools/arm-none-eabi-gcc/11.2.1-1.1.1/.content/bin/../lib/gcc/arm-none-eabi/11.2.1/../../../../arm-none-eabi/lib/thumb/v7-m/nofp\libc_nano.a(lib_a-init.o)
                                                  c:/users/18111/appdata/roaming/xpacks/@xpack-dev-tools/arm-none-eabi-gcc/11.2.1-1.1.1/.content/bin/../lib/gcc/arm-none-eabi/11.2.1/../../../../arm-none-eabi/lib/thumb/v7-m/nofp/crt0.o
__on_exit_args                                    c:/users/18111/appdata/roaming/xpacks/@xpack-dev-tools/arm-none-eabi-gcc/11.2.1-1.1.1/.content/bin/../lib/gcc/arm-none-eabi/11.2.1/../../../../arm-none-eabi/lib/thumb/v7-m/nofp\libc_nano.a(lib_a-__atexit.o)
__preinit_array_end                               c:/users/18111/appdata/roaming/xpacks/@xpack-dev-tools/arm-none-eabi-gcc/11.2.1-1.1.1/.content/bin/../lib/gcc/arm-none-eabi/11.2.1/../../../../arm-none-eabi/lib/thumb/v7-m/nofp\libc_nano.a(lib_a-init.o)
__preinit_array_start                             c:/users/18111/appdata/roaming/xpacks/@xpack-dev-tools/arm-none-eabi-gcc/11.2.1-1.1.1/.content/bin/../lib/gcc/arm-none-eabi/11.2.1/../../../../arm-none-eabi/lib/thumb/v7-m/nofp\libc_nano.a(lib_a-init.o)
__register_exitproc                               c:/users/18111/appdata/roaming/xpacks/@xpack-dev-tools/arm-none-eabi-gcc/11.2.1-1.1.1/.content/bin/../lib/gcc/arm-none-eabi/11.2.1/../../../../arm-none-eabi/lib/thumb/v7-m/nofp\libc_nano.a(lib_a-__atexit.o)
                                                  c:/users/18111/appdata/roaming/xpacks/@xpack-dev-tools/arm-none-eabi-gcc/11.2.1-1.1.1/.content/bin/../lib/gcc/arm-none-eabi/11.2.1/../../../../arm-none-eabi/lib/thumb/v7-m/nofp\libc_nano.a(lib_a-atexit.o)
__register_frame_info                             c:/users/18111/appdata/roaming/xpacks/@xpack-dev-tools/arm-none-eabi-gcc/11.2.1-1.1.1/.content/bin/../lib/gcc/arm-none-eabi/11.2.1/thumb/v7-m/nofp/crtbegin.o
__sf_fake_stderr                                  c:/users/18111/appdata/roaming/xpacks/@xpack-dev-tools/arm-none-eabi-gcc/11.2.1-1.1.1/.content/bin/../lib/gcc/arm-none-eabi/11.2.1/../../../../arm-none-eabi/lib/thumb/v7-m/nofp\libc_nano.a(lib_a-impure.o)
__sf_fake_stdin                                   c:/users/18111/appdata/roaming/xpacks/@xpack-dev-tools/arm-none-eabi-gcc/11.2.1-1.1.1/.content/bin/../lib/gcc/arm-none-eabi/11.2.1/../../../../arm-none-eabi/lib/thumb/v7-m/nofp\libc_nano.a(lib_a-impure.o)
__sf_fake_stdout                                  c:/users/18111/appdata/roaming/xpacks/@xpack-dev-tools/arm-none-eabi-gcc/11.2.1-1.1.1/.content/bin/../lib/gcc/arm-none-eabi/11.2.1/../../../../arm-none-eabi/lib/thumb/v7-m/nofp\libc_nano.a(lib_a-impure.o)
__stack                                           c:/users/18111/appdata/roaming/xpacks/@xpack-dev-tools/arm-none-eabi-gcc/11.2.1-1.1.1/.content/bin/../lib/gcc/arm-none-eabi/11.2.1/../../../../arm-none-eabi/lib/thumb/v7-m/nofp/crt0.o
_estack                                           build/startup_stm32f100xb.o
_exit                                             c:/users/18111/appdata/roaming/xpacks/@xpack-dev-tools/arm-none-eabi-gcc/11.2.1-1.1.1/.content/bin/../lib/gcc/arm-none-eabi/11.2.1/../../../../arm-none-eabi/lib/thumb/v7-m/nofp\libnosys.a(_exit.o)
                                                  c:/users/18111/appdata/roaming/xpacks/@xpack-dev-tools/arm-none-eabi-gcc/11.2.1-1.1.1/.content/bin/../lib/gcc/arm-none-eabi/11.2.1/../../../../arm-none-eabi/lib/thumb/v7-m/nofp\libc_nano.a(lib_a-exit.o)
_fini                                             c:/users/18111/appdata/roaming/xpacks/@xpack-dev-tools/arm-none-eabi-gcc/11.2.1-1.1.1/.content/bin/../lib/gcc/arm-none-eabi/11.2.1/thumb/v7-m/nofp/crti.o
                                                  c:/users/18111/appdata/roaming/xpacks/@xpack-dev-tools/arm-none-eabi-gcc/11.2.1-1.1.1/.content/bin/../lib/gcc/arm-none-eabi/11.2.1/../../../../arm-none-eabi/lib/thumb/v7-m/nofp\libc_nano.a(lib_a-fini.o)
_global_atexit                                    c:/users/18111/appdata/roaming/xpacks/@xpack-dev-tools/arm-none-eabi-gcc/11.2.1-1.1.1/.content/bin/../lib/gcc/arm-none-eabi/11.2.1/../../../../arm-none-eabi/lib/thumb/v7-m/nofp\libc_nano.a(lib_a-__call_atexit.o)
                                                  c:/users/18111/appdata/roaming/xpacks/@xpack-dev-tools/arm-none-eabi-gcc/11.2.1-1.1.1/.content/bin/../lib/gcc/arm-none-eabi/11.2.1/../../../../arm-none-eabi/lib/thumb/v7-m/nofp\libc_nano.a(lib_a-__atexit.o)
_global_impure_ptr                                c:/users/18111/appdata/roaming/xpacks/@xpack-dev-tools/arm-none-eabi-gcc/11.2.1-1.1.1/.content/bin/../lib/gcc/arm-none-eabi/11.2.1/../../../../arm-none-eabi/lib/thumb/v7-m/nofp\libc_nano.a(lib_a-impure.o)
                                                  c:/users/18111/appdata/roaming/xpacks/@xpack-dev-tools/arm-none-eabi-gcc/11.2.1-1.1.1/.content/bin/../lib/gcc/arm-none-eabi/11.2.1/../../../../arm-none-eabi/lib/thumb/v7-m/nofp\libc_nano.a(lib_a-exit.o)
_impure_ptr                                       c:/users/18111/appdata/roaming/xpacks/@xpack-dev-tools/arm-none-eabi-gcc/11.2.1-1.1.1/.content/bin/../lib/gcc/arm-none-eabi/11.2.1/../../../../arm-none-eabi/lib/thumb/v7-m/nofp\libc_nano.a(lib_a-impure.o)
_init                                             c:/users/18111/appdata/roaming/xpacks/@xpack-dev-tools/arm-none-eabi-gcc/11.2.1-1.1.1/.content/bin/../lib/gcc/arm-none-eabi/11.2.1/thumb/v7-m/nofp/crti.o
                                                  c:/users/18111/appdata/roaming/xpacks/@xpack-dev-tools/arm-none-eabi-gcc/11.2.1-1.1.1/.content/bin/../lib/gcc/arm-none-eabi/11.2.1/../../../../arm-none-eabi/lib/thumb/v7-m/nofp\libc_nano.a(lib_a-init.o)
_mainCRTStartup                                   c:/users/18111/appdata/roaming/xpacks/@xpack-dev-tools/arm-none-eabi-gcc/11.2.1-1.1.1/.content/bin/../lib/gcc/arm-none-eabi/11.2.1/../../../../arm-none-eabi/lib/thumb/v7-m/nofp/crt0.o
_stack_init                                       c:/users/18111/appdata/roaming/xpacks/@xpack-dev-tools/arm-none-eabi-gcc/11.2.1-1.1.1/.content/bin/../lib/gcc/arm-none-eabi/11.2.1/../../../../arm-none-eabi/lib/thumb/v7-m/nofp/crt0.o
_start                                            c:/users/18111/appdata/roaming/xpacks/@xpack-dev-tools/arm-none-eabi-gcc/11.2.1-1.1.1/.content/bin/../lib/gcc/arm-none-eabi/11.2.1/../../../../arm-none-eabi/lib/thumb/v7-m/nofp/crt0.o
atexit                                            c:/users/18111/appdata/roaming/xpacks/@xpack-dev-tools/arm-none-eabi-gcc/11.2.1-1.1.1/.content/bin/../lib/gcc/arm-none-eabi/11.2.1/../../../../arm-none-eabi/lib/thumb/v7-m/nofp\libc_nano.a(lib_a-atexit.o)
                                                  c:/users/18111/appdata/roaming/xpacks/@xpack-dev-tools/arm-none-eabi-gcc/11.2.1-1.1.1/.content/bin/../lib/gcc/arm-none-eabi/11.2.1/../../../../arm-none-eabi/lib/thumb/v7-m/nofp/crt0.o
exit                                              c:/users/18111/appdata/roaming/xpacks/@xpack-dev-tools/arm-none-eabi-gcc/11.2.1-1.1.1/.content/bin/../lib/gcc/arm-none-eabi/11.2.1/../../../../arm-none-eabi/lib/thumb/v7-m/nofp\libc_nano.a(lib_a-exit.o)
                                                  c:/users/18111/appdata/roaming/xpacks/@xpack-dev-tools/arm-none-eabi-gcc/11.2.1-1.1.1/.content/bin/../lib/gcc/arm-none-eabi/11.2.1/../../../../arm-none-eabi/lib/thumb/v7-m/nofp/crt0.o
hardware_init_hook                                c:/users/18111/appdata/roaming/xpacks/@xpack-dev-tools/arm-none-eabi-gcc/11.2.1-1.1.1/.content/bin/../lib/gcc/arm-none-eabi/11.2.1/../../../../arm-none-eabi/lib/thumb/v7-m/nofp/crt0.o
main                                              c:/users/18111/appdata/roaming/xpacks/@xpack-dev-tools/arm-none-eabi-gcc/11.2.1-1.1.1/.content/bin/../lib/gcc/arm-none-eabi/11.2.1/../../../../arm-none-eabi/lib/thumb/v7-m/nofp/crt0.o
malloc                                            c:/users/18111/appdata/roaming/xpacks/@xpack-dev-tools/arm-none-eabi-gcc/11.2.1-1.1.1/.content/bin/../lib/gcc/arm-none-eabi/11.2.1/../../../../arm-none-eabi/lib/thumb/v7-m/nofp\libc_nano.a(lib_a-__atexit.o)
memset                                            c:/users/18111/appdata/roaming/xpacks/@xpack-dev-tools/arm-none-eabi-gcc/11.2.1-1.1.1/.content/bin/../lib/gcc/arm-none-eabi/11.2.1/../../../../arm-none-eabi/lib/thumb/v7-m/nofp\libc_nano.a(lib_a-memset.o)
                                                  c:/users/18111/appdata/roaming/xpacks/@xpack-dev-tools/arm-none-eabi-gcc/11.2.1-1.1.1/.content/bin/../lib/gcc/arm-none-eabi/11.2.1/../../../../arm-none-eabi/lib/thumb/v7-m/nofp/crt0.o
software_init_hook                                c:/users/18111/appdata/roaming/xpacks/@xpack-dev-tools/arm-none-eabi-gcc/11.2.1-1.1.1/.content/bin/../lib/gcc/arm-none-eabi/11.2.1/../../../../arm-none-eabi/lib/thumb/v7-m/nofp/crt0.o
